target datalayout = "e-m:e-p270:32:32-p271:32:32-p272:64:64-i64:64-i128:128-f80:128-n8:16:32:64-S128"
target triple = "x86_64-pc-linux-gnu"

%struct.Vec_Int_t_ = type { i32, i32, ptr }
%struct.Ssw_Pars_t_ = type { i32, i32, i32, i32, i32, i32, i32, i32, i32, i32, i32, i32, i32, i32, i32, i32, i32, i32, i32, i32, i32, i32, i32, i32, i32, i32, i32, i32, i32, i32, i32, i32, i32, i32, i32, i32, i32, i32, i32, i32, i32, i32, ptr, ptr }

@.str.12 = private unnamed_addr constant [65 x i8] c"Performing sequential verification using structural similarity.\0A\00", align 1
@.str.13 = private unnamed_addr constant [24 x i8] c"Demitering has failed.\0A\00", align 1

; Function Attrs: inlinehint nounwind uwtable
define internal void @Vec_IntFree(ptr noundef %0) #1 {
  %2 = alloca ptr, align 8
  store ptr %0, ptr %2, align 8, !tbaa !3
  %3 = load ptr, ptr %2, align 8, !tbaa !3
  %4 = getelementptr inbounds nuw %struct.Vec_Int_t_, ptr %3, i32 0, i32 2
  %5 = load ptr, ptr %4, align 8, !tbaa !19
  %6 = icmp ne ptr %5, null
  br i1 %6, label %7, label %13

7:                                                ; preds = %1
  %8 = load ptr, ptr %2, align 8, !tbaa !3
  %9 = getelementptr inbounds nuw %struct.Vec_Int_t_, ptr %8, i32 0, i32 2
  %10 = load ptr, ptr %9, align 8, !tbaa !19
  call void @free(ptr noundef %10) #9
  %11 = load ptr, ptr %2, align 8, !tbaa !3
  %12 = getelementptr inbounds nuw %struct.Vec_Int_t_, ptr %11, i32 0, i32 2
  store ptr null, ptr %12, align 8, !tbaa !19
  br label %14

13:                                               ; preds = %1
  br label %14

14:                                               ; preds = %13, %7
  %15 = load ptr, ptr %2, align 8, !tbaa !3
  %16 = icmp ne ptr %15, null
  br i1 %16, label %17, label %19

17:                                               ; preds = %14
  %18 = load ptr, ptr %2, align 8, !tbaa !3
  call void @free(ptr noundef %18) #9
  store ptr null, ptr %2, align 8, !tbaa !3
  br label %20

19:                                               ; preds = %14
  br label %20

20:                                               ; preds = %19, %17
  ret void
}

; Function Attrs: nounwind uwtable
define i32 @Ssw_SecWithSimilarity(ptr noundef %0, ptr noundef %1, ptr noundef %2) #0 {
  %4 = alloca i32, align 4
  %5 = alloca ptr, align 8
  %6 = alloca ptr, align 8
  %7 = alloca ptr, align 8
  %8 = alloca ptr, align 8
  %9 = alloca ptr, align 8
  %10 = alloca ptr, align 8
  %11 = alloca i32, align 4
  %12 = alloca i32, align 4
  store ptr %0, ptr %5, align 8, !tbaa !20
  store ptr %1, ptr %6, align 8, !tbaa !20
  store ptr %2, ptr %7, align 8, !tbaa !68
  call void @llvm.lifetime.start.p0(i64 8, ptr %8) #9
  call void @llvm.lifetime.start.p0(i64 8, ptr %9) #9
  call void @llvm.lifetime.start.p0(i64 8, ptr %10) #9
  call void @llvm.lifetime.start.p0(i64 4, ptr %11) #9
  %13 = load ptr, ptr %7, align 8, !tbaa !68
  %14 = getelementptr inbounds nuw %struct.Ssw_Pars_t_, ptr %13, i32 0, i32 28
  %15 = load i32, ptr %14, align 8, !tbaa !72
  %16 = icmp ne i32 %15, 0
  br i1 %16, label %17, label %18

17:                                               ; preds = %3
  call void (i32, ptr, ...) @Abc_Print(i32 noundef 1, ptr noundef @.str.12)
  br label %18

18:                                               ; preds = %17, %3
  %19 = load ptr, ptr %6, align 8, !tbaa !20
  %20 = icmp eq ptr %19, null
  br i1 %20, label %21, label %34

21:                                               ; preds = %18
  %22 = load ptr, ptr %7, align 8, !tbaa !68
  %23 = getelementptr inbounds nuw %struct.Ssw_Pars_t_, ptr %22, i32 0, i32 28
  %24 = load i32, ptr %23, align 8, !tbaa !72
  %25 = icmp ne i32 %24, 0
  br i1 %25, label %26, label %28

26:                                               ; preds = %21
  %27 = load ptr, ptr %5, align 8, !tbaa !20
  call void @Aig_ManPrintStats(ptr noundef %27)
  br label %28

28:                                               ; preds = %26, %21
  %29 = load ptr, ptr %5, align 8, !tbaa !20
  %30 = call i32 @Saig_ManDemiterSimpleDiff(ptr noundef %29, ptr noundef %9, ptr noundef %10)
  %31 = icmp ne i32 %30, 0
  br i1 %31, label %33, label %32

32:                                               ; preds = %28
  call void (i32, ptr, ...) @Abc_Print(i32 noundef 1, ptr noundef @.str.13)
  store i32 -1, ptr %4, align 4
  store i32 1, ptr %12, align 4
  br label %65

33:                                               ; preds = %28
  br label %39

34:                                               ; preds = %18
  %35 = load ptr, ptr %5, align 8, !tbaa !20
  %36 = call ptr @Aig_ManDupSimple(ptr noundef %35)
  store ptr %36, ptr %9, align 8, !tbaa !20
  %37 = load ptr, ptr %6, align 8, !tbaa !20
  %38 = call ptr @Aig_ManDupSimple(ptr noundef %37)
  store ptr %38, ptr %10, align 8, !tbaa !20
  br label %39

39:                                               ; preds = %34, %33
  %40 = load ptr, ptr %7, align 8, !tbaa !68
  %41 = getelementptr inbounds nuw %struct.Ssw_Pars_t_, ptr %40, i32 0, i32 28
  %42 = load i32, ptr %41, align 8, !tbaa !72
  %43 = icmp ne i32 %42, 0
  br i1 %43, label %44, label %49

44:                                               ; preds = %39
  %45 = load ptr, ptr %6, align 8, !tbaa !20
  %46 = icmp eq ptr %45, null
  br i1 %46, label %47, label %48

47:                                               ; preds = %44
  br label %48

48:                                               ; preds = %47, %44
  br label %49

49:                                               ; preds = %48, %39
  %50 = load ptr, ptr %9, align 8, !tbaa !20
  %51 = load ptr, ptr %10, align 8, !tbaa !20
  %52 = load ptr, ptr %7, align 8, !tbaa !68
  %53 = getelementptr inbounds nuw %struct.Ssw_Pars_t_, ptr %52, i32 0, i32 28
  %54 = load i32, ptr %53, align 8, !tbaa !72
  %55 = call ptr @Saig_StrSimPerformMatching(ptr noundef %50, ptr noundef %51, i32 noundef 0, i32 noundef %54, ptr noundef null)
  store ptr %55, ptr %8, align 8, !tbaa !3
  %56 = load ptr, ptr %9, align 8, !tbaa !20
  %57 = load ptr, ptr %10, align 8, !tbaa !20
  %58 = load ptr, ptr %8, align 8, !tbaa !3
  %59 = load ptr, ptr %7, align 8, !tbaa !68
  %60 = call i32 @Ssw_SecWithSimilarityPairs(ptr noundef %56, ptr noundef %57, ptr noundef %58, ptr noundef %59)
  store i32 %60, ptr %11, align 4, !tbaa !14
  %61 = load ptr, ptr %9, align 8, !tbaa !20
  call void @Aig_ManStop(ptr noundef %61)
  %62 = load ptr, ptr %10, align 8, !tbaa !20
  call void @Aig_ManStop(ptr noundef %62)
  %63 = load ptr, ptr %8, align 8, !tbaa !3
  call void @Vec_IntFree(ptr noundef %63)
  %64 = load i32, ptr %11, align 4, !tbaa !14
  store i32 %64, ptr %4, align 4
  store i32 1, ptr %12, align 4
  br label %65

65:                                               ; preds = %49, %32
  call void @llvm.lifetime.end.p0(i64 4, ptr %11) #9
  call void @llvm.lifetime.end.p0(i64 8, ptr %10) #9
  call void @llvm.lifetime.end.p0(i64 8, ptr %9) #9
  call void @llvm.lifetime.end.p0(i64 8, ptr %8) #9
  %66 = load i32, ptr %4, align 4
  ret i32 %66
}