; Function Attrs: nounwind uwtable
define noundef i32 @Ssw_SecWithSimilarity(ptr noundef %0, ptr noundef %1, ptr noundef %2) local_unnamed_addr #1 {
  %4 = alloca ptr, align 8
  %5 = alloca ptr, align 8
  call void @llvm.lifetime.start.p0(i64 8, ptr nonnull %4) #15
  call void @llvm.lifetime.start.p0(i64 8, ptr nonnull %5) #15
  %6 = getelementptr inbounds nuw i8, ptr %2, i64 112
  %7 = load i32, ptr %6, align 8, !tbaa !67
  %.not = icmp eq i32 %7, 0
  br i1 %.not, label %9, label %8

8:                                                ; preds = %3
  tail call void (i32, ptr, ...) @Abc_Print(i32 poison, ptr noundef nonnull @.str.12)
  br label %9

9:                                                ; preds = %8, %3
  %10 = icmp eq ptr %1, null
  br i1 %10, label %11, label %17

11:                                               ; preds = %9
  %12 = load i32, ptr %6, align 8, !tbaa !67
  %.not15 = icmp eq i32 %12, 0
  br i1 %.not15, label %14, label %13

13:                                               ; preds = %11
  tail call void @Aig_ManPrintStats(ptr noundef %0) #15
  br label %14

14:                                               ; preds = %13, %11
  %15 = call i32 @Saig_ManDemiterSimpleDiff(ptr noundef %0, ptr noundef nonnull %4, ptr noundef nonnull %5) #15
  %.not16 = icmp eq i32 %15, 0
  br i1 %.not16, label %16, label %._crit_edge

._crit_edge:                                      ; preds = %14
  %.pre = load ptr, ptr %4, align 8, !tbaa !88
  %.pre18 = load ptr, ptr %5, align 8, !tbaa !88
  br label %20

16:                                               ; preds = %14
  call void (i32, ptr, ...) @Abc_Print(i32 poison, ptr noundef nonnull @.str.13)
  br label %33

17:                                               ; preds = %9
  %18 = tail call ptr @Aig_ManDupSimple(ptr noundef %0) #15
  store ptr %18, ptr %4, align 8, !tbaa !88
  %19 = tail call ptr @Aig_ManDupSimple(ptr noundef nonnull %1) #15
  store ptr %19, ptr %5, align 8, !tbaa !88
  br label %20

20:                                               ; preds = %._crit_edge, %17
  %21 = phi ptr [ %.pre18, %._crit_edge ], [ %19, %17 ]
  %22 = phi ptr [ %.pre, %._crit_edge ], [ %18, %17 ]
  %23 = load i32, ptr %6, align 8, !tbaa !67
  %24 = call ptr @Saig_StrSimPerformMatching(ptr noundef %22, ptr noundef %21, i32 noundef 0, i32 noundef %23, ptr noundef null) #15
  %25 = load ptr, ptr %4, align 8, !tbaa !88
  %26 = load ptr, ptr %5, align 8, !tbaa !88
  %27 = call i32 @Ssw_SecWithSimilarityPairs(ptr noundef %25, ptr noundef %26, ptr noundef %24, ptr noundef nonnull %2)
  %28 = load ptr, ptr %4, align 8, !tbaa !88
  call void @Aig_ManStop(ptr noundef %28) #15
  %29 = load ptr, ptr %5, align 8, !tbaa !88
  call void @Aig_ManStop(ptr noundef %29) #15
  %30 = getelementptr inbounds nuw i8, ptr %24, i64 8
  %31 = load ptr, ptr %30, align 8, !tbaa !15
  %.not.i = icmp eq ptr %31, null
  br i1 %.not.i, label %Vec_IntFree.exit, label %32

32:                                               ; preds = %20
  call void @free(ptr noundef nonnull %31) #15
  br label %Vec_IntFree.exit

Vec_IntFree.exit:                                 ; preds = %20, %32
  call void @free(ptr noundef nonnull %24) #15
  br label %33

33:                                               ; preds = %Vec_IntFree.exit, %16
  %.0 = phi i32 [ %27, %Vec_IntFree.exit ], [ -1, %16 ]
  call void @llvm.lifetime.end.p0(i64 8, ptr nonnull %5) #15
  call void @llvm.lifetime.end.p0(i64 8, ptr nonnull %4) #15
  ret i32 %.0
}